; Function Attrs: mustprogress uwtable
define void @_ZN10colvardeps12init_featureEiPKcNS_12feature_typeE(ptr noundef nonnull align 8 dereferenceable(120) %0, i32 noundef %1, ptr noundef %2, i32 noundef %3) local_unnamed_addr #4 align 2 {
  %5 = load ptr, ptr %0, align 8
  %6 = getelementptr inbounds i8, ptr %5, i64 24
  %7 = load ptr, ptr %6, align 8
  %8 = tail call noundef nonnull align 8 dereferenceable(24) ptr %7(ptr noundef nonnull align 8 dereferenceable(120) %0)
  %9 = sext i32 %1 to i64
  %10 = load ptr, ptr %8, align 8
  %11 = getelementptr inbounds ptr, ptr %10, i64 %9
  %12 = load ptr, ptr %11, align 8
  %13 = tail call noundef nonnull align 8 dereferenceable(32) ptr @_ZNSt7__cxx1112basic_stringIcSt11char_traitsIcESaIcEEaSEPKc(ptr noundef nonnull align 8 dereferenceable(32) %12, ptr noundef %2)
  %14 = load ptr, ptr %0, align 8
  %15 = getelementptr inbounds i8, ptr %14, i64 24
  %16 = load ptr, ptr %15, align 8
  %17 = tail call noundef nonnull align 8 dereferenceable(24) ptr %16(ptr noundef nonnull align 8 dereferenceable(120) %0)
  %18 = load ptr, ptr %17, align 8
  %19 = getelementptr inbounds ptr, ptr %18, i64 %9
  %20 = load ptr, ptr %19, align 8
  %21 = getelementptr inbounds i8, ptr %20, i64 128
  store i32 %3, ptr %21, align 8
  ret void
}